; Function Attrs: mustprogress uwtable
define noundef range(i64 -1152921504606846976, 1152921504606846976) i64 @_ZNK8QuantLib30FdmExtendedOrnsteinUhlenbeckOp4sizeEv(ptr nocapture noundef nonnull readonly align 8 dereferenceable(344) %this) unnamed_addr #6 align 2 {
entry:
  %mesher_ = getelementptr inbounds nuw i8, ptr %this, i64 8
  %0 = load ptr, ptr %mesher_, align 8, !tbaa !6
  %cmp.not.i = icmp eq ptr %0, null
  br i1 %cmp.not.i, label %cond.false.i, label %_ZNK5boost10shared_ptrIN8QuantLib9FdmMesherEEptEv.exit, !prof !43

cond.false.i:                                     ; preds = %entry
  tail call void @_ZN5boost16assertion_failedEPKcS1_S1_l(ptr noundef nonnull @.str.11, ptr noundef nonnull @__PRETTY_FUNCTION__._ZNK5boost10shared_ptrIN8QuantLib9FdmMesherEEptEv, ptr noundef nonnull @.str.12, i64 noundef 784)
  %.pre.i = load ptr, ptr %mesher_, align 8, !tbaa !6
  br label %_ZNK5boost10shared_ptrIN8QuantLib9FdmMesherEEptEv.exit

_ZNK5boost10shared_ptrIN8QuantLib9FdmMesherEEptEv.exit: ; preds = %entry, %cond.false.i
  %1 = phi ptr [ %0, %entry ], [ %.pre.i, %cond.false.i ]
  %layout_.i = getelementptr inbounds nuw i8, ptr %1, i64 8
  %2 = load ptr, ptr %layout_.i, align 8, !tbaa !44
  %cmp.not.i1 = icmp eq ptr %2, null
  br i1 %cmp.not.i1, label %cond.false.i2, label %_ZNK5boost10shared_ptrIN8QuantLib17FdmLinearOpLayoutEEptEv.exit, !prof !43

cond.false.i2:                                    ; preds = %_ZNK5boost10shared_ptrIN8QuantLib9FdmMesherEEptEv.exit
  tail call void @_ZN5boost16assertion_failedEPKcS1_S1_l(ptr noundef nonnull @.str.11, ptr noundef nonnull @__PRETTY_FUNCTION__._ZNK5boost10shared_ptrIN8QuantLib17FdmLinearOpLayoutEEptEv, ptr noundef nonnull @.str.12, i64 noundef 784)
  %.pre.i3 = load ptr, ptr %layout_.i, align 8, !tbaa !44
  br label %_ZNK5boost10shared_ptrIN8QuantLib17FdmLinearOpLayoutEEptEv.exit

_ZNK5boost10shared_ptrIN8QuantLib17FdmLinearOpLayoutEEptEv.exit: ; preds = %_ZNK5boost10shared_ptrIN8QuantLib9FdmMesherEEptEv.exit, %cond.false.i2
  %3 = phi ptr [ %2, %_ZNK5boost10shared_ptrIN8QuantLib9FdmMesherEEptEv.exit ], [ %.pre.i3, %cond.false.i2 ]
  %dim_.i = getelementptr inbounds nuw i8, ptr %3, i64 8
  %_M_finish.i = getelementptr inbounds nuw i8, ptr %3, i64 16
  %4 = load ptr, ptr %_M_finish.i, align 8, !tbaa !63
  %5 = load ptr, ptr %dim_.i, align 8, !tbaa !64
  %sub.ptr.lhs.cast.i = ptrtoint ptr %4 to i64
  %sub.ptr.rhs.cast.i = ptrtoint ptr %5 to i64
  %sub.ptr.sub.i = sub i64 %sub.ptr.lhs.cast.i, %sub.ptr.rhs.cast.i
  %sub.ptr.div.i = ashr exact i64 %sub.ptr.sub.i, 3
  ret i64 %sub.ptr.div.i
}